target datalayout = "e-m:e-p270:32:32-p271:32:32-p272:64:64-i64:64-i128:128-f80:128-n8:16:32:64-S128"
target triple = "x86_64-pc-linux-gnu"

%"class.std::error_code" = type { i32, ptr }
%"class.std::filesystem::file_status" = type { i8, i32 }

; Function Attrs: mustprogress nounwind uwtable
define linkonce_odr noundef signext i8 @_ZNKSt10filesystem11file_status4typeEv(ptr noundef nonnull align 4 dereferenceable(8) %0) #4 comdat align 2 {
  %2 = alloca ptr, align 8
  store ptr %0, ptr %2, align 8, !tbaa !52
  %3 = load ptr, ptr %2, align 8
  %4 = getelementptr inbounds nuw %"class.std::filesystem::file_status", ptr %3, i32 0, i32 0
  %5 = load i8, ptr %4, align 4, !tbaa !54
  ret i8 %5
}

; Function Attrs: inlinehint mustprogress nounwind uwtable
define linkonce_odr noundef zeroext i1 @_ZNSt10filesystem12status_knownENS_11file_statusE(i64 %0) #9 comdat {
  %2 = alloca %"class.std::filesystem::file_status", align 4
  store i64 %0, ptr %2, align 4
  %3 = call noundef signext i8 @_ZNKSt10filesystem11file_status4typeEv(ptr noundef nonnull align 4 dereferenceable(8) %2) #3
  %4 = icmp ne i8 %3, 0
  ret i1 %4
}

; Function Attrs: inlinehint mustprogress nounwind uwtable
define linkonce_odr noundef zeroext i1 @_ZNSt10filesystem6existsENS_11file_statusE(i64 %0) #9 comdat {
  %2 = alloca %"class.std::filesystem::file_status", align 4
  %3 = alloca %"class.std::filesystem::file_status", align 4
  store i64 %0, ptr %2, align 4
  call void @llvm.memcpy.p0.p0.i64(ptr align 4 %3, ptr align 4 %2, i64 8, i1 false), !tbaa.struct !42
  %4 = load i64, ptr %3, align 4
  %5 = call noundef zeroext i1 @_ZNSt10filesystem12status_knownENS_11file_statusE(i64 %4) #3
  br i1 %5, label %6, label %9

6:                                                ; preds = %1
  %7 = call noundef signext i8 @_ZNKSt10filesystem11file_status4typeEv(ptr noundef nonnull align 4 dereferenceable(8) %2) #3
  %8 = icmp ne i8 %7, -1
  br label %9

9:                                                ; preds = %6, %1
  %10 = phi i1 [ false, %1 ], [ %8, %6 ]
  ret i1 %10
}

; Function Attrs: mustprogress nounwind uwtable
define linkonce_odr noundef i32 @_ZNKSt10error_code5valueEv(ptr noundef nonnull align 8 dereferenceable(16) %0) #4 comdat align 2 {
  %2 = alloca ptr, align 8
  store ptr %0, ptr %2, align 8, !tbaa !36
  %3 = load ptr, ptr %2, align 8
  %4 = getelementptr inbounds nuw %"class.std::error_code", ptr %3, i32 0, i32 0
  %5 = load i32, ptr %4, align 8, !tbaa !38
  ret i32 %5
}

; Function Attrs: mustprogress nounwind uwtable
define linkonce_odr void @_ZNSt10error_codeC2Ev(ptr noundef nonnull align 8 dereferenceable(16) %0) unnamed_addr #4 comdat align 2 {
  %2 = alloca ptr, align 8
  store ptr %0, ptr %2, align 8, !tbaa !36
  %3 = load ptr, ptr %2, align 8
  %4 = getelementptr inbounds nuw %"class.std::error_code", ptr %3, i32 0, i32 0
  store i32 0, ptr %4, align 8, !tbaa !38
  %5 = getelementptr inbounds nuw %"class.std::error_code", ptr %3, i32 0, i32 1
  %6 = call noundef nonnull align 8 dereferenceable(8) ptr @_ZNSt3_V215system_categoryEv() #23
  store ptr %6, ptr %5, align 8, !tbaa !41
  ret void
}

; Function Attrs: inlinehint mustprogress uwtable
define linkonce_odr noundef zeroext i1 @_ZNSt10filesystem6existsERKNS_7__cxx114pathE(ptr noundef nonnull align 8 dereferenceable(40) %0) #7 comdat {
  %2 = alloca ptr, align 8
  %3 = alloca %"class.std::filesystem::file_status", align 4
  store ptr %0, ptr %2, align 8, !tbaa !34
  %4 = load ptr, ptr %2, align 8, !tbaa !34
  %5 = call i64 @_ZNSt10filesystem6statusERKNS_7__cxx114pathE(ptr noundef nonnull align 8 dereferenceable(40) %4)
  store i64 %5, ptr %3, align 4
  %6 = load i64, ptr %3, align 4
  %7 = call noundef zeroext i1 @_ZNSt10filesystem6existsENS_11file_statusE(i64 %6) #3
  ret i1 %7
}

; Function Attrs: mustprogress uwtable
define noundef i32 @_Z13gmx_file_copyRKNSt10filesystem7__cxx114pathES3_b(ptr noundef nonnull align 8 dereferenceable(40) %0, ptr noundef nonnull align 8 dereferenceable(40) %1, i1 noundef zeroext %2) #6 {
  %4 = alloca i32, align 4
  %5 = alloca ptr, align 8
  %6 = alloca ptr, align 8
  %7 = alloca i8, align 1
  %8 = alloca %"class.std::error_code", align 8
  %9 = alloca i32, align 4
  store ptr %0, ptr %5, align 8, !tbaa !34
  store ptr %1, ptr %6, align 8, !tbaa !34
  %10 = zext i1 %2 to i8
  store i8 %10, ptr %7, align 1, !tbaa !9
  %11 = load ptr, ptr %5, align 8, !tbaa !34
  %12 = call noundef zeroext i1 @_ZNSt10filesystem6existsERKNS_7__cxx114pathE(ptr noundef nonnull align 8 dereferenceable(40) %11)
  br i1 %12, label %14, label %13

13:                                               ; preds = %3
  store i32 1, ptr %4, align 4
  br label %27

14:                                               ; preds = %3
  call void @llvm.lifetime.start.p0(i64 16, ptr %8) #3
  call void @_ZNSt10error_codeC2Ev(ptr noundef nonnull align 8 dereferenceable(16) %8) #3
  %15 = load ptr, ptr %5, align 8, !tbaa !34
  %16 = call noundef zeroext i1 @_ZNSt10filesystem8is_emptyERKNS_7__cxx114pathE(ptr noundef nonnull align 8 dereferenceable(40) %15)
  br i1 %16, label %17, label %20

17:                                               ; preds = %14
  %18 = load i8, ptr %7, align 1, !tbaa !9, !range !99, !noundef !100
  %19 = trunc i8 %18 to i1
  br i1 %19, label %20, label %25

20:                                               ; preds = %17, %14
  %21 = load ptr, ptr %5, align 8, !tbaa !34
  %22 = load ptr, ptr %6, align 8, !tbaa !34
  %23 = call noundef zeroext i1 @_ZNSt10filesystem9copy_fileERKNS_7__cxx114pathES3_NS_12copy_optionsERSt10error_code(ptr noundef nonnull align 8 dereferenceable(40) %21, ptr noundef nonnull align 8 dereferenceable(40) %22, i16 noundef zeroext 2, ptr noundef nonnull align 8 dereferenceable(16) %8)
  %24 = call noundef i32 @_ZNKSt10error_code5valueEv(ptr noundef nonnull align 8 dereferenceable(16) %8) #3
  store i32 %24, ptr %4, align 4
  store i32 1, ptr %9, align 4
  br label %26

25:                                               ; preds = %17
  store i32 0, ptr %4, align 4
  store i32 1, ptr %9, align 4
  br label %26

26:                                               ; preds = %25, %20
  call void @llvm.lifetime.end.p0(i64 16, ptr %8) #3
  br label %27

27:                                               ; preds = %26, %13
  %28 = load i32, ptr %4, align 4
  ret i32 %28
}