; Function Attrs: mustprogress uwtable
define noundef i32 @_Z13gmx_file_copyRKNSt10filesystem7__cxx114pathES3_b(ptr noundef nonnull align 8 dereferenceable(40) %0, ptr noundef nonnull align 8 dereferenceable(40) %1, i1 noundef zeroext %2) local_unnamed_addr #9 {
  %4 = alloca %"class.std::error_code", align 8
  %5 = tail call i64 @_ZNSt10filesystem6statusERKNS_7__cxx114pathE(ptr noundef nonnull align 8 dereferenceable(40) %0)
  %trunc = trunc i64 %5 to i8
  switch i8 %trunc, label %6 [
    i8 -1, label %14
    i8 0, label %14
  ]

6:                                                ; preds = %3
  call void @llvm.lifetime.start.p0(i64 16, ptr nonnull %4) #30
  store i32 0, ptr %4, align 8, !tbaa !21
  %7 = getelementptr inbounds nuw i8, ptr %4, i64 8
  %8 = tail call noundef nonnull align 8 dereferenceable(8) ptr @_ZNSt3_V215system_categoryEv() #34
  store ptr %8, ptr %7, align 8, !tbaa !24
  %9 = tail call noundef zeroext i1 @_ZNSt10filesystem8is_emptyERKNS_7__cxx114pathE(ptr noundef nonnull align 8 dereferenceable(40) %0)
  %.not = xor i1 %9, true
  %brmerge = or i1 %2, %.not
  br i1 %brmerge, label %10, label %13

10:                                               ; preds = %6
  %11 = call noundef zeroext i1 @_ZNSt10filesystem9copy_fileERKNS_7__cxx114pathES3_NS_12copy_optionsERSt10error_code(ptr noundef nonnull align 8 dereferenceable(40) %0, ptr noundef nonnull align 8 dereferenceable(40) %1, i16 noundef zeroext 2, ptr noundef nonnull align 8 dereferenceable(16) %4)
  %12 = load i32, ptr %4, align 8, !tbaa !21
  br label %13

13:                                               ; preds = %6, %10
  %.1 = phi i32 [ %12, %10 ], [ 0, %6 ]
  call void @llvm.lifetime.end.p0(i64 16, ptr nonnull %4) #30
  br label %14

14:                                               ; preds = %3, %3, %13
  %.0 = phi i32 [ %.1, %13 ], [ 1, %3 ], [ 1, %3 ]
  ret i32 %.0
}